; Function Attrs: nounwind uwtable
define ptr @l_Lean_Server_FileWorker_handleResponseError(ptr noundef %0, i8 noundef zeroext %1, ptr noundef %2, ptr noundef readonly captures(none) %3, ptr readnone captures(none) %4, ptr noundef %5) local_unnamed_addr #0 {
  tail call void @lean_inc_heartbeat() #7
  %7 = tail call noalias ptr @mi_malloc_small(i64 noundef 24) #7
  %8 = icmp eq ptr %7, null
  br i1 %8, label %9, label %lean_alloc_ctor.exit

9:                                                ; preds = %6
  tail call void @lean_internal_panic_out_of_memory() #8
  unreachable

lean_alloc_ctor.exit:                             ; preds = %6
  %10 = getelementptr inbounds nuw i8, ptr %7, i64 4
  %11 = getelementptr inbounds nuw i8, ptr %7, i64 16
  store i64 0, ptr %11, align 8, !tbaa !8
  store i32 1, ptr %7, align 4, !tbaa !10
  store i32 16842776, ptr %10, align 4
  %12 = getelementptr inbounds nuw i8, ptr %7, i64 8
  store ptr %2, ptr %12, align 8, !tbaa !4
  store i8 %1, ptr %11, align 1, !tbaa !14
  %13 = tail call ptr @l_Lean_Server_FileWorker_WorkerContext_resolveServerRequestResponse(ptr noundef %3, ptr noundef %0, ptr noundef nonnull %7, ptr noundef %5)
  %.val = load i32, ptr %13, align 4, !tbaa !10
  %14 = icmp eq i32 %.val, 1
  br i1 %14, label %51, label %15

15:                                               ; preds = %lean_alloc_ctor.exit
  %16 = getelementptr inbounds nuw i8, ptr %13, i64 8
  %17 = load ptr, ptr %16, align 8, !tbaa !4
  %18 = getelementptr inbounds nuw i8, ptr %13, i64 16
  %19 = load ptr, ptr %18, align 8, !tbaa !4
  %20 = ptrtoint ptr %19 to i64
  %21 = and i64 %20, 1
  %.not = icmp eq i64 %21, 0
  br i1 %.not, label %22, label %lean_inc.exit21

22:                                               ; preds = %15
  %.val.i = load i32, ptr %19, align 4, !tbaa !10
  %23 = icmp sgt i32 %.val.i, 0
  br i1 %23, label %24, label %26, !prof !13

24:                                               ; preds = %22
  %25 = add nuw i32 %.val.i, 1
  store i32 %25, ptr %19, align 4, !tbaa !10
  br label %lean_inc.exit21

26:                                               ; preds = %22
  %.not.i22 = icmp eq i32 %.val.i, 0
  br i1 %.not.i22, label %lean_inc.exit21, label %27

27:                                               ; preds = %26
  tail call void @lean_inc_ref_cold(ptr noundef nonnull %19) #7
  br label %lean_inc.exit21

lean_inc.exit21:                                  ; preds = %27, %26, %24, %15
  %28 = ptrtoint ptr %17 to i64
  %29 = and i64 %28, 1
  %.not27 = icmp eq i64 %29, 0
  br i1 %.not27, label %30, label %lean_inc.exit

30:                                               ; preds = %lean_inc.exit21
  %.val.i23 = load i32, ptr %17, align 4, !tbaa !10
  %31 = icmp sgt i32 %.val.i23, 0
  br i1 %31, label %32, label %34, !prof !13

32:                                               ; preds = %30
  %33 = add nuw i32 %.val.i23, 1
  store i32 %33, ptr %17, align 4, !tbaa !10
  br label %lean_inc.exit

34:                                               ; preds = %30
  %.not.i24 = icmp eq i32 %.val.i23, 0
  br i1 %.not.i24, label %lean_inc.exit, label %35

35:                                               ; preds = %34
  tail call void @lean_inc_ref_cold(ptr noundef nonnull %17) #7
  br label %lean_inc.exit

lean_inc.exit:                                    ; preds = %35, %34, %32, %lean_inc.exit21
  %36 = ptrtoint ptr %13 to i64
  %37 = and i64 %36, 1
  %.not28 = icmp eq i64 %37, 0
  br i1 %.not28, label %38, label %lean_dec.exit

38:                                               ; preds = %lean_inc.exit
  %39 = load i32, ptr %13, align 4, !tbaa !10
  %40 = icmp sgt i32 %39, 1
  br i1 %40, label %41, label %43, !prof !13

41:                                               ; preds = %38
  %42 = add nsw i32 %39, -1
  store i32 %42, ptr %13, align 4, !tbaa !10
  br label %lean_dec.exit

43:                                               ; preds = %38
  %.not.i = icmp eq i32 %39, 0
  br i1 %.not.i, label %lean_dec.exit, label %44

44:                                               ; preds = %43
  tail call void @lean_dec_ref_cold(ptr noundef nonnull %13) #7
  br label %lean_dec.exit

lean_dec.exit:                                    ; preds = %44, %43, %41, %lean_inc.exit
  tail call void @lean_inc_heartbeat() #7
  %45 = tail call noalias ptr @mi_malloc_small(i64 noundef 24) #7
  %46 = icmp eq ptr %45, null
  br i1 %46, label %47, label %lean_alloc_ctor.exit26

47:                                               ; preds = %lean_dec.exit
  tail call void @lean_internal_panic_out_of_memory() #8
  unreachable

lean_alloc_ctor.exit26:                           ; preds = %lean_dec.exit
  %48 = getelementptr inbounds nuw i8, ptr %45, i64 4
  store i32 1, ptr %45, align 4, !tbaa !10
  store i32 131096, ptr %48, align 4
  %49 = getelementptr inbounds nuw i8, ptr %45, i64 8
  store ptr %17, ptr %49, align 8, !tbaa !4
  %50 = getelementptr inbounds nuw i8, ptr %45, i64 16
  store ptr %19, ptr %50, align 8, !tbaa !4
  br label %51

51:                                               ; preds = %lean_alloc_ctor.exit, %lean_alloc_ctor.exit26
  %.0 = phi ptr [ %45, %lean_alloc_ctor.exit26 ], [ %13, %lean_alloc_ctor.exit ]
  ret ptr %.0
}